target datalayout = "e-m:e-p270:32:32-p271:32:32-p272:64:64-i64:64-i128:128-f80:128-n8:16:32:64-S128"
target triple = "x86_64-pc-linux-gnu"

%struct.expert_field = type { i32, i32 }

@.str.74 = private unnamed_addr constant [9 x i8] c"Reserved\00", align 1
@hf_ansi_801_cancellation_type = internal global i32 0, align 4
@hf_ansi_801_reserved8_0F = internal global i32 0, align 4
@ei_ansi_801_extraneous_data = internal global %struct.expert_field zeroinitializer, align 4
@ei_ansi_801_short_data = internal global %struct.expert_field zeroinitializer, align 4
@.str.258 = private unnamed_addr constant [8 x i8] c"(%u) %s\00", align 1

; Function Attrs: null_pointer_is_valid sspstrong uwtable
define internal void @for_req_cancel(ptr noundef %0, ptr noundef %1, ptr noundef %2, i32 noundef %3, i32 noundef %4) #0 {
  %6 = alloca ptr, align 8
  %7 = alloca ptr, align 8
  %8 = alloca ptr, align 8
  %9 = alloca i32, align 4
  %10 = alloca i32, align 4
  %11 = alloca i8, align 1
  %12 = alloca i32, align 4
  %13 = alloca ptr, align 8
  %14 = alloca i32, align 4
  store ptr %0, ptr %6, align 8
  store ptr %1, ptr %7, align 8
  store ptr %2, ptr %8, align 8
  store i32 %3, ptr %9, align 4
  store i32 %4, ptr %10, align 4
  call void @llvm.lifetime.start.p0(i64 1, ptr %11) #6
  call void @llvm.lifetime.start.p0(i64 4, ptr %12) #6
  call void @llvm.lifetime.start.p0(i64 8, ptr %13) #6
  store ptr null, ptr %13, align 8
  %15 = load i32, ptr %9, align 4
  %16 = icmp ult i32 %15, 1
  br i1 %16, label %17, label %24

17:                                               ; preds = %5
  %18 = load ptr, ptr %8, align 8
  %19 = load ptr, ptr %7, align 8
  %20 = load ptr, ptr %6, align 8
  %21 = load i32, ptr %10, align 4
  %22 = load i32, ptr %9, align 4
  %23 = call ptr @proto_tree_add_expert(ptr noundef %18, ptr noundef %19, ptr noundef @ei_ansi_801_short_data, ptr noundef %20, i32 noundef %21, i32 noundef %22)
  store i32 1, ptr %14, align 4
  br label %70

24:                                               ; preds = %5
  %25 = load i32, ptr %10, align 4
  store i32 %25, ptr %12, align 4
  %26 = load ptr, ptr %6, align 8
  %27 = load i32, ptr %10, align 4
  %28 = call zeroext i8 @tvb_get_uint8(ptr noundef %26, i32 noundef %27)
  store i8 %28, ptr %11, align 1
  %29 = load i8, ptr %11, align 1
  %30 = zext i8 %29 to i32
  %31 = and i32 %30, 240
  %32 = ashr i32 %31, 4
  %33 = call ptr @val_to_str_const(i32 noundef %32, ptr noundef @for_req_type_strings, ptr noundef @.str.74)
  store ptr %33, ptr %13, align 8
  %34 = load ptr, ptr %8, align 8
  %35 = load i32, ptr @hf_ansi_801_cancellation_type, align 4
  %36 = load ptr, ptr %6, align 8
  %37 = load i32, ptr %10, align 4
  %38 = load i8, ptr %11, align 1
  %39 = zext i8 %38 to i32
  %40 = load i8, ptr %11, align 1
  %41 = zext i8 %40 to i32
  %42 = and i32 %41, 240
  %43 = ashr i32 %42, 4
  %44 = load ptr, ptr %13, align 8
  %45 = call ptr (ptr, i32, ptr, i32, i32, i32, ptr, ...) @proto_tree_add_uint_format_value(ptr noundef %34, i32 noundef %35, ptr noundef %36, i32 noundef %37, i32 noundef 1, i32 noundef %39, ptr noundef @.str.258, i32 noundef %43, ptr noundef %44)
  %46 = load ptr, ptr %8, align 8
  %47 = load i32, ptr @hf_ansi_801_reserved8_0F, align 4
  %48 = load ptr, ptr %6, align 8
  %49 = load i32, ptr %10, align 4
  %50 = call ptr @proto_tree_add_item(ptr noundef %46, i32 noundef %47, ptr noundef %48, i32 noundef %49, i32 noundef 1, i32 noundef 0)
  %51 = load i32, ptr %10, align 4
  %52 = add i32 %51, 1
  store i32 %52, ptr %10, align 4
  %53 = load i32, ptr %9, align 4
  %54 = load i32, ptr %10, align 4
  %55 = load i32, ptr %12, align 4
  %56 = sub i32 %54, %55
  %57 = icmp ugt i32 %53, %56
  br i1 %57, label %58, label %69

58:                                               ; preds = %24
  %59 = load ptr, ptr %8, align 8
  %60 = load ptr, ptr %7, align 8
  %61 = load ptr, ptr %6, align 8
  %62 = load i32, ptr %10, align 4
  %63 = load i32, ptr %9, align 4
  %64 = load i32, ptr %10, align 4
  %65 = load i32, ptr %12, align 4
  %66 = sub i32 %64, %65
  %67 = sub i32 %63, %66
  %68 = call ptr @proto_tree_add_expert(ptr noundef %59, ptr noundef %60, ptr noundef @ei_ansi_801_extraneous_data, ptr noundef %61, i32 noundef %62, i32 noundef %67)
  br label %69

69:                                               ; preds = %58, %24
  store i32 0, ptr %14, align 4
  br label %70

70:                                               ; preds = %69, %17
  call void @llvm.lifetime.end.p0(i64 8, ptr %13) #6
  call void @llvm.lifetime.end.p0(i64 4, ptr %12) #6
  call void @llvm.lifetime.end.p0(i64 1, ptr %11) #6
  %71 = load i32, ptr %14, align 4
  switch i32 %71, label %73 [
    i32 0, label %72
    i32 1, label %72
  ]

72:                                               ; preds = %70, %70
  ret void

73:                                               ; preds = %70
  unreachable
}